; Function Attrs: mustprogress uwtable
define noundef i32 @_ZN12ByteViewText11asciiPixelsEv(ptr noundef nonnull align 8 dereferenceable(328) %0) local_unnamed_addr #0 align 2 personality ptr @__gxx_personality_v0 {
  %2 = alloca %class.QFontMetrics, align 8
  %3 = alloca %class.QString, align 8
  %4 = getelementptr inbounds i8, ptr %0, i64 194
  %5 = load i8, ptr %4, align 2
  %6 = and i8 %5, 1
  %.not = icmp eq i8 %6, 0
  br i1 %.not, label %_ZN7QStringD2Ev.exit, label %7

7:                                                ; preds = %1
  %8 = getelementptr inbounds i8, ptr %0, i64 196
  %9 = load i32, ptr %8, align 4
  %10 = add i32 %9, -1
  %11 = load i32, ptr @_ZN12ByteViewText19separator_interval_E, align 4
  %12 = sdiv i32 %10, %11
  %13 = add i32 %9, 3
  %14 = add i32 %13, %12
  %15 = sext i32 %14 to i64
  call void @_ZN7QStringC1Ex5QChar(ptr noundef nonnull align 8 dereferenceable(24) %3, i64 noundef %15, i16 48)
  call void @llvm.lifetime.start.p0(i64 8, ptr nonnull %2)
  %16 = invoke noundef ptr @_ZNK19QAbstractScrollArea8viewportEv(ptr noundef nonnull align 8 dereferenceable(40) %0)
          to label %.noexc unwind label %28

.noexc:                                           ; preds = %7
  %17 = getelementptr inbounds i8, ptr %16, i64 32
  %18 = load ptr, ptr %17, align 8, !noalias !64
  %19 = getelementptr inbounds i8, ptr %18, i64 56
  invoke void @_ZN12QFontMetricsC1ERK5QFont(ptr noundef nonnull align 8 dereferenceable(8) %2, ptr noundef nonnull align 8 dereferenceable(12) %19)
          to label %.noexc4 unwind label %28

.noexc4:                                          ; preds = %.noexc
  %20 = invoke noundef i32 @_ZNK12QFontMetrics17horizontalAdvanceERK7QStringi(ptr noundef nonnull align 8 dereferenceable(8) %2, ptr noundef nonnull align 8 dereferenceable(24) %3, i32 noundef -1)
          to label %23 unwind label %21

21:                                               ; preds = %.noexc4
  %22 = landingpad { ptr, i32 }
          cleanup
  call void @_ZN12QFontMetricsD1Ev(ptr noundef nonnull align 8 dereferenceable(8) %2) #22
  br label %.body

23:                                               ; preds = %.noexc4
  call void @_ZN12QFontMetricsD1Ev(ptr noundef nonnull align 8 dereferenceable(8) %2) #22
  call void @llvm.lifetime.end.p0(i64 8, ptr nonnull %2)
  %24 = load ptr, ptr %3, align 8
  %.not.i.i.i = icmp eq ptr %24, null
  br i1 %.not.i.i.i, label %_ZN7QStringD2Ev.exit, label %_ZN17QArrayDataPointerIDsE5derefEv.exit.i.i

_ZN17QArrayDataPointerIDsE5derefEv.exit.i.i:      ; preds = %23
  %25 = atomicrmw sub ptr %24, i32 1 seq_cst, align 4
  %.not.i.i = icmp eq i32 %25, 1
  br i1 %.not.i.i, label %26, label %_ZN7QStringD2Ev.exit

26:                                               ; preds = %_ZN17QArrayDataPointerIDsE5derefEv.exit.i.i
  %27 = load ptr, ptr %3, align 8
  call void @_ZN10QArrayData10deallocateEPS_xx(ptr noundef %27, i64 noundef 2, i64 noundef 8) #22
  br label %_ZN7QStringD2Ev.exit

28:                                               ; preds = %.noexc, %7
  %29 = landingpad { ptr, i32 }
          cleanup
  br label %.body

.body:                                            ; preds = %21, %28
  %eh.lpad-body = phi { ptr, i32 } [ %29, %28 ], [ %22, %21 ]
  %30 = load ptr, ptr %3, align 8
  %.not.i.i.i5 = icmp eq ptr %30, null
  br i1 %.not.i.i.i5, label %_ZN7QStringD2Ev.exit8, label %_ZN17QArrayDataPointerIDsE5derefEv.exit.i.i6

_ZN17QArrayDataPointerIDsE5derefEv.exit.i.i6:     ; preds = %.body
  %31 = atomicrmw sub ptr %30, i32 1 seq_cst, align 4
  %.not.i.i7 = icmp eq i32 %31, 1
  br i1 %.not.i.i7, label %32, label %_ZN7QStringD2Ev.exit8

32:                                               ; preds = %_ZN17QArrayDataPointerIDsE5derefEv.exit.i.i6
  %33 = load ptr, ptr %3, align 8
  call void @_ZN10QArrayData10deallocateEPS_xx(ptr noundef %33, i64 noundef 2, i64 noundef 8) #22
  br label %_ZN7QStringD2Ev.exit8

_ZN7QStringD2Ev.exit8:                            ; preds = %.body, %_ZN17QArrayDataPointerIDsE5derefEv.exit.i.i6, %32
  resume { ptr, i32 } %eh.lpad-body

_ZN7QStringD2Ev.exit:                             ; preds = %26, %_ZN17QArrayDataPointerIDsE5derefEv.exit.i.i, %23, %1
  %.0 = phi i32 [ 0, %1 ], [ %20, %23 ], [ %20, %_ZN17QArrayDataPointerIDsE5derefEv.exit.i.i ], [ %20, %26 ]
  ret i32 %.0
}